target datalayout = "e-m:e-p270:32:32-p271:32:32-p272:64:64-i64:64-i128:128-f80:128-n8:16:32:64-S128"
target triple = "x86_64-pc-linux-gnu"

%"class.google::LogMessageFatal" = type { %"class.google::LogMessage" }
%"class.google::LogMessage" = type { ptr, ptr, %"struct.google::LogMessageTime" }
%"struct.google::LogMessageTime" = type { %struct.tm, i64, i32, i64 }
%struct.tm = type { i32, i32, i32, i32, i32, i32, i32, i32, i32, i64, ptr }
%"class.ceres::internal::DenseCholesky" = type { ptr }
%"class.std::__cxx11::basic_string" = type { %"struct.std::__cxx11::basic_string<char>::_Alloc_hider", i64, %union.anon }
%"struct.std::__cxx11::basic_string<char>::_Alloc_hider" = type { ptr }
%union.anon = type { i64, [8 x i8] }
%"class.ceres::internal::CUDADenseCholesky" = type <{ %"class.ceres::internal::DenseCholesky", ptr, i64, %"class.ceres::internal::CudaBuffer", %"class.ceres::internal::CudaBuffer", %"class.ceres::internal::CudaBuffer", %"class.ceres::internal::CudaBuffer.196", i32, [4 x i8] }>
%"class.ceres::internal::CudaBuffer" = type { ptr, i64, ptr }
%"class.ceres::internal::CudaBuffer.196" = type { ptr, i64, ptr }
%"class.ceres::internal::ContextImpl" = type <{ %"class.ceres::Context", %"class.ceres::internal::ThreadPool", ptr, ptr, [2 x ptr], ptr, i8, [3 x i8], i32, %struct.cudaDeviceProp, i8, [3 x i8], i32, i32, [4 x i8] }>
%"class.ceres::Context" = type { ptr }
%"class.ceres::internal::ThreadPool" = type { %"class.ceres::internal::ConcurrentQueue", %"class.std::vector.200", %"class.std::mutex" }
%"class.ceres::internal::ConcurrentQueue" = type <{ %"class.std::mutex", %"class.std::condition_variable", %"class.std::queue", i8, [7 x i8] }>
%"class.std::condition_variable" = type { %"class.std::__condvar" }
%"class.std::__condvar" = type { %union.pthread_cond_t }
%union.pthread_cond_t = type { %struct.__pthread_cond_s }
%struct.__pthread_cond_s = type { %union.__atomic_wide_counter, %union.__atomic_wide_counter, [2 x i32], [2 x i32], i32, i32, [2 x i32] }
%union.__atomic_wide_counter = type { i64 }
%"class.std::queue" = type { %"class.std::deque" }
%"class.std::deque" = type { %"class.std::_Deque_base" }
%"class.std::_Deque_base" = type { %"struct.std::_Deque_base<std::function<void ()>, std::allocator<std::function<void ()>>>::_Deque_impl" }
%"struct.std::_Deque_base<std::function<void ()>, std::allocator<std::function<void ()>>>::_Deque_impl" = type { %"struct.std::_Deque_base<std::function<void ()>, std::allocator<std::function<void ()>>>::_Deque_impl_data" }
%"struct.std::_Deque_base<std::function<void ()>, std::allocator<std::function<void ()>>>::_Deque_impl_data" = type { ptr, i64, %"struct.std::_Deque_iterator", %"struct.std::_Deque_iterator" }
%"struct.std::_Deque_iterator" = type { ptr, ptr, ptr, ptr }
%"class.std::vector.200" = type { %"struct.std::_Vector_base.201" }
%"struct.std::_Vector_base.201" = type { %"struct.std::_Vector_base<std::thread, std::allocator<std::thread>>::_Vector_impl" }
%"struct.std::_Vector_base<std::thread, std::allocator<std::thread>>::_Vector_impl" = type { %"struct.std::_Vector_base<std::thread, std::allocator<std::thread>>::_Vector_impl_data" }
%"struct.std::_Vector_base<std::thread, std::allocator<std::thread>>::_Vector_impl_data" = type { ptr, ptr, ptr }
%"class.std::mutex" = type { %"class.std::__mutex_base" }
%"class.std::__mutex_base" = type { %union.pthread_mutex_t }
%union.pthread_mutex_t = type { %struct.__pthread_mutex_s }
%struct.__pthread_mutex_s = type { i32, i32, i32, i32, i32, i16, i16, %struct.__pthread_internal_list }
%struct.__pthread_internal_list = type { ptr, ptr }
%struct.cudaDeviceProp = type { [256 x i8], %struct.CUuuid_st, [8 x i8], i32, i64, i64, i32, i32, i64, i32, [3 x i32], [3 x i32], i32, i64, i32, i32, i64, i64, i32, i32, i32, i32, i32, i32, i32, i32, i32, [2 x i32], [2 x i32], [3 x i32], [2 x i32], [3 x i32], [3 x i32], i32, [2 x i32], [3 x i32], [2 x i32], i32, [2 x i32], [3 x i32], [2 x i32], [3 x i32], i32, [2 x i32], i64, i32, i32, i32, i32, i32, i32, i32, i32, i32, i32, i32, i32, i32, i32, i32, i32, i64, i32, i32, i32, i32, i32, i32, i32, i32, i32, i32, i32, i32, i64, i32, i32, i32, i32, i64 }
%struct.CUuuid_st = type { [16 x i8] }

@.str = private unnamed_addr constant [129 x i8] c"generated/home/dtcxzyw/WorkSpace/Projects/compilers/llvm-opt-benchmark/bench/ceres/ceres-solver/internal/ceres/dense_cholesky.cc\00", align 1
@.str.9 = private unnamed_addr constant [11 x i8] c"Argument: \00", align 1
@.str.10 = private unnamed_addr constant [13 x i8] c" is invalid.\00", align 1
@.str.13 = private unnamed_addr constant [8 x i8] c"Success\00", align 1
@.str.17 = private unnamed_addr constant [48 x i8] c"cuSolverDN::cusolverDnDpotrf_bufferSize failed.\00", align 1
@.str.18 = private unnamed_addr constant [37 x i8] c"cuSolverDN::cusolverDnDpotrf failed.\00", align 1
@.str.19 = private unnamed_addr constant [45 x i8] c"Congratulations, you found a bug in Ceres - \00", align 1
@.str.20 = private unnamed_addr constant [19 x i8] c"please report it. \00", align 1
@.str.21 = private unnamed_addr constant [43 x i8] c"cuSolverDN::cusolverDnXpotrf fatal error. \00", align 1
@.str.22 = private unnamed_addr constant [104 x i8] c"cuSolverDN::cusolverDnDpotrf numerical failure. The leading minor of order %d is not positive definite.\00", align 1

; Function Attrs: mustprogress nounwind uwtable
define linkonce_odr hidden noundef ptr @_ZN5ceres8internal10CudaBufferIiE4dataEv(ptr noundef nonnull align 8 dereferenceable(24) %0) #1 comdat align 2 {
  %2 = alloca ptr, align 8
  store ptr %0, ptr %2, align 8
  %3 = load ptr, ptr %2, align 8
  %4 = getelementptr inbounds %"class.ceres::internal::CudaBuffer.196", ptr %3, i32 0, i32 0
  %5 = load ptr, ptr %4, align 8
  ret ptr %5
}

; Function Attrs: mustprogress nounwind uwtable
define linkonce_odr hidden noundef i64 @_ZNK5ceres8internal10CudaBufferIdE4sizeEv(ptr noundef nonnull align 8 dereferenceable(24) %0) #1 comdat align 2 {
  %2 = alloca ptr, align 8
  store ptr %0, ptr %2, align 8
  %3 = load ptr, ptr %2, align 8
  %4 = getelementptr inbounds %"class.ceres::internal::CudaBuffer", ptr %3, i32 0, i32 1
  %5 = load i64, ptr %4, align 8
  ret i64 %5
}

; Function Attrs: mustprogress nounwind uwtable
define linkonce_odr hidden noundef ptr @_ZN5ceres8internal10CudaBufferIdE4dataEv(ptr noundef nonnull align 8 dereferenceable(24) %0) #1 comdat align 2 {
  %2 = alloca ptr, align 8
  store ptr %0, ptr %2, align 8
  %3 = load ptr, ptr %2, align 8
  %4 = getelementptr inbounds %"class.ceres::internal::CudaBuffer", ptr %3, i32 0, i32 0
  %5 = load ptr, ptr %4, align 8
  ret ptr %5
}

; Function Attrs: mustprogress uwtable
define hidden noundef i32 @_ZN5ceres8internal17CUDADenseCholesky9FactorizeEiPdPNSt7__cxx1112basic_stringIcSt11char_traitsIcESaIcEEE(ptr noundef nonnull align 8 dereferenceable(128) %0, i32 noundef %1, ptr noundef %2, ptr noundef %3) unnamed_addr #2 align 2 personality ptr @__gxx_personality_v0 {
  %5 = alloca i32, align 4
  %6 = alloca ptr, align 8
  %7 = alloca i32, align 4
  %8 = alloca ptr, align 8
  %9 = alloca ptr, align 8
  %10 = alloca i32, align 4
  %11 = alloca i32, align 4
  %12 = alloca %"class.google::LogMessageFatal", align 8
  %13 = alloca ptr, align 8
  %14 = alloca i32, align 4
  %15 = alloca %"class.std::__cxx11::basic_string", align 8
  store ptr %0, ptr %6, align 8
  store i32 %1, ptr %7, align 4
  store ptr %2, ptr %8, align 8
  store ptr %3, ptr %9, align 8
  %16 = load ptr, ptr %6, align 8
  %17 = getelementptr inbounds %"class.ceres::internal::CUDADenseCholesky", ptr %16, i32 0, i32 7
  store i32 3, ptr %17, align 8
  %18 = getelementptr inbounds %"class.ceres::internal::CUDADenseCholesky", ptr %16, i32 0, i32 3
  %19 = load i32, ptr %7, align 4
  %20 = load i32, ptr %7, align 4
  %21 = mul nsw i32 %19, %20
  %22 = sext i32 %21 to i64
  call void @_ZN5ceres8internal10CudaBufferIdE7ReserveEm(ptr noundef nonnull align 8 dereferenceable(24) %18, i64 noundef %22)
  %23 = load i32, ptr %7, align 4
  %24 = sext i32 %23 to i64
  %25 = getelementptr inbounds %"class.ceres::internal::CUDADenseCholesky", ptr %16, i32 0, i32 2
  store i64 %24, ptr %25, align 8
  %26 = getelementptr inbounds %"class.ceres::internal::CUDADenseCholesky", ptr %16, i32 0, i32 3
  %27 = load ptr, ptr %8, align 8
  %28 = load i32, ptr %7, align 4
  %29 = load i32, ptr %7, align 4
  %30 = mul nsw i32 %28, %29
  %31 = sext i32 %30 to i64
  call void @_ZN5ceres8internal10CudaBufferIdE11CopyFromCpuEPKdm(ptr noundef nonnull align 8 dereferenceable(24) %26, ptr noundef %27, i64 noundef %31)
  store i32 0, ptr %10, align 4
  %32 = getelementptr inbounds %"class.ceres::internal::CUDADenseCholesky", ptr %16, i32 0, i32 1
  %33 = load ptr, ptr %32, align 8
  %34 = getelementptr inbounds %"class.ceres::internal::ContextImpl", ptr %33, i32 0, i32 2
  %35 = load ptr, ptr %34, align 8
  %36 = load i32, ptr %7, align 4
  %37 = getelementptr inbounds %"class.ceres::internal::CUDADenseCholesky", ptr %16, i32 0, i32 3
  %38 = call noundef ptr @_ZN5ceres8internal10CudaBufferIdE4dataEv(ptr noundef nonnull align 8 dereferenceable(24) %37)
  %39 = load i32, ptr %7, align 4
  %40 = call i32 @cusolverDnDpotrf_bufferSize(ptr noundef %35, i32 noundef 0, i32 noundef %36, ptr noundef %38, i32 noundef %39, ptr noundef %10)
  %41 = icmp ne i32 %40, 0
  br i1 %41, label %42, label %45

42:                                               ; preds = %4
  %43 = load ptr, ptr %9, align 8
  %44 = call noundef nonnull align 8 dereferenceable(32) ptr @_ZNSt7__cxx1112basic_stringIcSt11char_traitsIcESaIcEEaSEPKc(ptr noundef nonnull align 8 dereferenceable(32) %43, ptr noundef @.str.17)
  store i32 3, ptr %5, align 4
  br label %108

45:                                               ; preds = %4
  %46 = getelementptr inbounds %"class.ceres::internal::CUDADenseCholesky", ptr %16, i32 0, i32 5
  %47 = load i32, ptr %10, align 4
  %48 = sext i32 %47 to i64
  call void @_ZN5ceres8internal10CudaBufferIdE7ReserveEm(ptr noundef nonnull align 8 dereferenceable(24) %46, i64 noundef %48)
  %49 = getelementptr inbounds %"class.ceres::internal::CUDADenseCholesky", ptr %16, i32 0, i32 1
  %50 = load ptr, ptr %49, align 8
  %51 = getelementptr inbounds %"class.ceres::internal::ContextImpl", ptr %50, i32 0, i32 2
  %52 = load ptr, ptr %51, align 8
  %53 = load i32, ptr %7, align 4
  %54 = getelementptr inbounds %"class.ceres::internal::CUDADenseCholesky", ptr %16, i32 0, i32 3
  %55 = call noundef ptr @_ZN5ceres8internal10CudaBufferIdE4dataEv(ptr noundef nonnull align 8 dereferenceable(24) %54)
  %56 = load i32, ptr %7, align 4
  %57 = getelementptr inbounds %"class.ceres::internal::CUDADenseCholesky", ptr %16, i32 0, i32 5
  %58 = call noundef ptr @_ZN5ceres8internal10CudaBufferIdE4dataEv(ptr noundef nonnull align 8 dereferenceable(24) %57)
  %59 = getelementptr inbounds %"class.ceres::internal::CUDADenseCholesky", ptr %16, i32 0, i32 5
  %60 = call noundef i64 @_ZNK5ceres8internal10CudaBufferIdE4sizeEv(ptr noundef nonnull align 8 dereferenceable(24) %59)
  %61 = trunc i64 %60 to i32
  %62 = getelementptr inbounds %"class.ceres::internal::CUDADenseCholesky", ptr %16, i32 0, i32 6
  %63 = call noundef ptr @_ZN5ceres8internal10CudaBufferIiE4dataEv(ptr noundef nonnull align 8 dereferenceable(24) %62)
  %64 = call i32 @cusolverDnDpotrf(ptr noundef %52, i32 noundef 0, i32 noundef %53, ptr noundef %55, i32 noundef %56, ptr noundef %58, i32 noundef %61, ptr noundef %63)
  %65 = icmp ne i32 %64, 0
  br i1 %65, label %66, label %69

66:                                               ; preds = %45
  %67 = load ptr, ptr %9, align 8
  %68 = call noundef nonnull align 8 dereferenceable(32) ptr @_ZNSt7__cxx1112basic_stringIcSt11char_traitsIcESaIcEEaSEPKc(ptr noundef nonnull align 8 dereferenceable(32) %67, ptr noundef @.str.18)
  store i32 3, ptr %5, align 4
  br label %108

69:                                               ; preds = %45
  store i32 0, ptr %11, align 4
  %70 = getelementptr inbounds %"class.ceres::internal::CUDADenseCholesky", ptr %16, i32 0, i32 6
  call void @_ZNK5ceres8internal10CudaBufferIiE9CopyToCpuEPim(ptr noundef nonnull align 8 dereferenceable(24) %70, ptr noundef %11, i64 noundef 1)
  %71 = load i32, ptr %11, align 4
  %72 = icmp slt i32 %71, 0
  br i1 %72, label %73, label %95

73:                                               ; preds = %69
  call void @_ZN6google15LogMessageFatalC1EPKci(ptr noundef nonnull align 8 dereferenceable(96) %12, ptr noundef @.str, i32 noundef 390)
  %74 = invoke noundef nonnull align 8 dereferenceable(8) ptr @_ZN6google10LogMessage6streamEv(ptr noundef nonnull align 8 dereferenceable(96) %12)
          to label %75 unwind label %90

75:                                               ; preds = %73
  %76 = invoke noundef nonnull align 8 dereferenceable(8) ptr @_ZStlsISt11char_traitsIcEERSt13basic_ostreamIcT_ES5_PKc(ptr noundef nonnull align 8 dereferenceable(8) %74, ptr noundef @.str.19)
          to label %77 unwind label %90

77:                                               ; preds = %75
  %78 = invoke noundef nonnull align 8 dereferenceable(8) ptr @_ZStlsISt11char_traitsIcEERSt13basic_ostreamIcT_ES5_PKc(ptr noundef nonnull align 8 dereferenceable(8) %76, ptr noundef @.str.20)
          to label %79 unwind label %90

79:                                               ; preds = %77
  %80 = invoke noundef nonnull align 8 dereferenceable(8) ptr @_ZStlsISt11char_traitsIcEERSt13basic_ostreamIcT_ES5_PKc(ptr noundef nonnull align 8 dereferenceable(8) %78, ptr noundef @.str.21)
          to label %81 unwind label %90

81:                                               ; preds = %79
  %82 = invoke noundef nonnull align 8 dereferenceable(8) ptr @_ZStlsISt11char_traitsIcEERSt13basic_ostreamIcT_ES5_PKc(ptr noundef nonnull align 8 dereferenceable(8) %80, ptr noundef @.str.9)
          to label %83 unwind label %90

83:                                               ; preds = %81
  %84 = load i32, ptr %11, align 4
  %85 = sub nsw i32 0, %84
  %86 = invoke noundef nonnull align 8 dereferenceable(8) ptr @_ZNSolsEi(ptr noundef nonnull align 8 dereferenceable(8) %82, i32 noundef %85)
          to label %87 unwind label %90

87:                                               ; preds = %83
  %88 = invoke noundef nonnull align 8 dereferenceable(8) ptr @_ZStlsISt11char_traitsIcEERSt13basic_ostreamIcT_ES5_PKc(ptr noundef nonnull align 8 dereferenceable(8) %86, ptr noundef @.str.10)
          to label %89 unwind label %90

89:                                               ; preds = %87
  call void @_ZN6google15LogMessageFatalD1Ev(ptr noundef nonnull align 8 dereferenceable(96) %12) #18
  unreachable

90:                                               ; preds = %87, %83, %81, %79, %77, %75, %73
  %91 = landingpad { ptr, i32 }
          cleanup
  %92 = extractvalue { ptr, i32 } %91, 0
  store ptr %92, ptr %13, align 8
  %93 = extractvalue { ptr, i32 } %91, 1
  store i32 %93, ptr %14, align 4
  call void @_ZN6google15LogMessageFatalD1Ev(ptr noundef nonnull align 8 dereferenceable(96) %12) #18
  unreachable

94:                                               ; No predecessors!
  br label %110

95:                                               ; preds = %69
  %96 = load i32, ptr %11, align 4
  %97 = icmp sgt i32 %96, 0
  br i1 %97, label %98, label %103

98:                                               ; preds = %95
  %99 = load i32, ptr %11, align 4
  call void (ptr, ptr, ...) @_ZN5ceres8internal12StringPrintfB5cxx11EPKcz(ptr dead_on_unwind writable sret(%"class.std::__cxx11::basic_string") align 8 %15, ptr noundef @.str.22, i32 noundef %99)
  %100 = load ptr, ptr %9, align 8
  %101 = call noundef nonnull align 8 dereferenceable(32) ptr @_ZNSt7__cxx1112basic_stringIcSt11char_traitsIcESaIcEEaSEOS4_(ptr noundef nonnull align 8 dereferenceable(32) %100, ptr noundef nonnull align 8 dereferenceable(32) %15) #14
  call void @_ZNSt7__cxx1112basic_stringIcSt11char_traitsIcESaIcEED1Ev(ptr noundef nonnull align 8 dereferenceable(32) %15) #14
  %102 = getelementptr inbounds %"class.ceres::internal::CUDADenseCholesky", ptr %16, i32 0, i32 7
  store i32 2, ptr %102, align 8
  store i32 2, ptr %5, align 4
  br label %108

103:                                              ; preds = %95
  br label %104

104:                                              ; preds = %103
  %105 = load ptr, ptr %9, align 8
  %106 = call noundef nonnull align 8 dereferenceable(32) ptr @_ZNSt7__cxx1112basic_stringIcSt11char_traitsIcESaIcEEaSEPKc(ptr noundef nonnull align 8 dereferenceable(32) %105, ptr noundef @.str.13)
  %107 = getelementptr inbounds %"class.ceres::internal::CUDADenseCholesky", ptr %16, i32 0, i32 7
  store i32 0, ptr %107, align 8
  store i32 0, ptr %5, align 4
  br label %108

108:                                              ; preds = %104, %98, %66, %42
  %109 = load i32, ptr %5, align 4
  ret i32 %109

110:                                              ; preds = %94
  %111 = load ptr, ptr %13, align 8
  %112 = load i32, ptr %14, align 4
  %113 = insertvalue { ptr, i32 } poison, ptr %111, 0
  %114 = insertvalue { ptr, i32 } %113, i32 %112, 1
  resume { ptr, i32 } %114
}