; Function Attrs: mustprogress uwtable
define hidden noundef i32 @_ZN5ceres8internal17CUDADenseCholesky9FactorizeEiPdPNSt7__cxx1112basic_stringIcSt11char_traitsIcESaIcEEE(ptr noundef nonnull align 8 dereferenceable(128) %0, i32 noundef %1, ptr noundef %2, ptr noundef %3) unnamed_addr #3 align 2 personality ptr @__gxx_personality_v0 {
  %5 = alloca i32, align 4
  %6 = alloca i32, align 4
  %7 = alloca %"class.google::LogMessageFatal", align 8
  %8 = alloca %"class.std::__cxx11::basic_string", align 8
  %9 = getelementptr inbounds i8, ptr %0, i64 120
  store i32 3, ptr %9, align 8
  %10 = getelementptr inbounds i8, ptr %0, i64 24
  %11 = mul nsw i32 %1, %1
  %12 = zext nneg i32 %11 to i64
  tail call void @_ZN5ceres8internal10CudaBufferIdE7ReserveEm(ptr noundef nonnull align 8 dereferenceable(24) %10, i64 noundef %12)
  %13 = sext i32 %1 to i64
  %14 = getelementptr inbounds i8, ptr %0, i64 16
  store i64 %13, ptr %14, align 8
  tail call void @_ZN5ceres8internal10CudaBufferIdE11CopyFromCpuEPKdm(ptr noundef nonnull align 8 dereferenceable(24) %10, ptr noundef %2, i64 noundef %12)
  store i32 0, ptr %5, align 4
  %15 = getelementptr inbounds i8, ptr %0, i64 8
  %16 = load ptr, ptr %15, align 8
  %17 = getelementptr inbounds i8, ptr %16, i64 248
  %18 = load ptr, ptr %17, align 8
  %19 = load ptr, ptr %10, align 8
  %20 = call i32 @cusolverDnDpotrf_bufferSize(ptr noundef %18, i32 noundef 0, i32 noundef %1, ptr noundef %19, i32 noundef %1, ptr noundef nonnull %5)
  %.not = icmp eq i32 %20, 0
  br i1 %.not, label %23, label %21

21:                                               ; preds = %4
  %22 = call noundef nonnull align 8 dereferenceable(32) ptr @_ZNSt7__cxx1112basic_stringIcSt11char_traitsIcESaIcEEaSEPKc(ptr noundef nonnull align 8 dereferenceable(32) %3, ptr noundef nonnull @.str.17)
  br label %67

23:                                               ; preds = %4
  %24 = getelementptr inbounds i8, ptr %0, i64 72
  %25 = load i32, ptr %5, align 4
  %26 = sext i32 %25 to i64
  call void @_ZN5ceres8internal10CudaBufferIdE7ReserveEm(ptr noundef nonnull align 8 dereferenceable(24) %24, i64 noundef %26)
  %27 = load ptr, ptr %15, align 8
  %28 = getelementptr inbounds i8, ptr %27, i64 248
  %29 = load ptr, ptr %28, align 8
  %30 = load ptr, ptr %10, align 8
  %31 = load ptr, ptr %24, align 8
  %32 = getelementptr inbounds i8, ptr %0, i64 80
  %33 = load i64, ptr %32, align 8
  %34 = trunc i64 %33 to i32
  %35 = getelementptr inbounds i8, ptr %0, i64 96
  %36 = load ptr, ptr %35, align 8
  %37 = call i32 @cusolverDnDpotrf(ptr noundef %29, i32 noundef 0, i32 noundef %1, ptr noundef %30, i32 noundef %1, ptr noundef %31, i32 noundef %34, ptr noundef %36)
  %.not16 = icmp eq i32 %37, 0
  br i1 %.not16, label %40, label %38

38:                                               ; preds = %23
  %39 = call noundef nonnull align 8 dereferenceable(32) ptr @_ZNSt7__cxx1112basic_stringIcSt11char_traitsIcESaIcEEaSEPKc(ptr noundef nonnull align 8 dereferenceable(32) %3, ptr noundef nonnull @.str.18)
  br label %67

40:                                               ; preds = %23
  store i32 0, ptr %6, align 4
  call void @_ZNK5ceres8internal10CudaBufferIiE9CopyToCpuEPim(ptr noundef nonnull align 8 dereferenceable(24) %35, ptr noundef nonnull %6, i64 noundef 1)
  %41 = load i32, ptr %6, align 4
  %42 = icmp slt i32 %41, 0
  br i1 %42, label %43, label %62

43:                                               ; preds = %40
  call void @_ZN6google15LogMessageFatalC1EPKci(ptr noundef nonnull align 8 dereferenceable(96) %7, ptr noundef nonnull @.str, i32 noundef 390)
  %44 = invoke noundef nonnull align 8 dereferenceable(8) ptr @_ZN6google10LogMessage6streamEv(ptr noundef nonnull align 8 dereferenceable(96) %7)
          to label %45 unwind label %60

45:                                               ; preds = %43
  %46 = invoke noundef nonnull align 8 dereferenceable(8) ptr @_ZStlsISt11char_traitsIcEERSt13basic_ostreamIcT_ES5_PKc(ptr noundef nonnull align 8 dereferenceable(8) %44, ptr noundef nonnull @.str.19)
          to label %47 unwind label %60

47:                                               ; preds = %45
  %48 = invoke noundef nonnull align 8 dereferenceable(8) ptr @_ZStlsISt11char_traitsIcEERSt13basic_ostreamIcT_ES5_PKc(ptr noundef nonnull align 8 dereferenceable(8) %46, ptr noundef nonnull @.str.20)
          to label %49 unwind label %60

49:                                               ; preds = %47
  %50 = invoke noundef nonnull align 8 dereferenceable(8) ptr @_ZStlsISt11char_traitsIcEERSt13basic_ostreamIcT_ES5_PKc(ptr noundef nonnull align 8 dereferenceable(8) %48, ptr noundef nonnull @.str.21)
          to label %51 unwind label %60

51:                                               ; preds = %49
  %52 = invoke noundef nonnull align 8 dereferenceable(8) ptr @_ZStlsISt11char_traitsIcEERSt13basic_ostreamIcT_ES5_PKc(ptr noundef nonnull align 8 dereferenceable(8) %50, ptr noundef nonnull @.str.9)
          to label %53 unwind label %60

53:                                               ; preds = %51
  %54 = load i32, ptr %6, align 4
  %55 = sub nsw i32 0, %54
  %56 = invoke noundef nonnull align 8 dereferenceable(8) ptr @_ZNSolsEi(ptr noundef nonnull align 8 dereferenceable(8) %52, i32 noundef %55)
          to label %57 unwind label %60

57:                                               ; preds = %53
  %58 = invoke noundef nonnull align 8 dereferenceable(8) ptr @_ZStlsISt11char_traitsIcEERSt13basic_ostreamIcT_ES5_PKc(ptr noundef nonnull align 8 dereferenceable(8) %56, ptr noundef nonnull @.str.10)
          to label %59 unwind label %60

59:                                               ; preds = %57
  call void @_ZN6google15LogMessageFatalD1Ev(ptr noundef nonnull align 8 dereferenceable(96) %7) #23
  unreachable

60:                                               ; preds = %57, %53, %51, %49, %47, %45, %43
  %61 = landingpad { ptr, i32 }
          cleanup
  call void @_ZN6google15LogMessageFatalD1Ev(ptr noundef nonnull align 8 dereferenceable(96) %7) #23
  unreachable

62:                                               ; preds = %40
  %.not17 = icmp eq i32 %41, 0
  br i1 %.not17, label %65, label %63

63:                                               ; preds = %62
  call void (ptr, ptr, ...) @_ZN5ceres8internal12StringPrintfB5cxx11EPKcz(ptr dead_on_unwind nonnull writable sret(%"class.std::__cxx11::basic_string") align 8 %8, ptr noundef nonnull @.str.22, i32 noundef %41)
  %64 = call noundef nonnull align 8 dereferenceable(32) ptr @_ZNSt7__cxx1112basic_stringIcSt11char_traitsIcESaIcEEaSEOS4_(ptr noundef nonnull align 8 dereferenceable(32) %3, ptr noundef nonnull align 8 dereferenceable(32) %8) #26
  call void @_ZNSt7__cxx1112basic_stringIcSt11char_traitsIcESaIcEED1Ev(ptr noundef nonnull align 8 dereferenceable(32) %8) #26
  store i32 2, ptr %9, align 8
  br label %67

65:                                               ; preds = %62
  %66 = call noundef nonnull align 8 dereferenceable(32) ptr @_ZNSt7__cxx1112basic_stringIcSt11char_traitsIcESaIcEEaSEPKc(ptr noundef nonnull align 8 dereferenceable(32) %3, ptr noundef nonnull @.str.13)
  store i32 0, ptr %9, align 8
  br label %67

67:                                               ; preds = %65, %63, %38, %21
  %.0 = phi i32 [ 3, %21 ], [ 3, %38 ], [ 2, %63 ], [ 0, %65 ]
  ret i32 %.0
}